; Function Attrs: mustprogress nofree norecurse nosync nounwind willreturn memory(argmem: write) uwtable
define void @lv_cache_set_name(ptr noundef writeonly %0, ptr noundef %1) local_unnamed_addr #3 {
  %3 = icmp eq ptr %0, null
  br i1 %3, label %6, label %4

4:                                                ; preds = %2
  %5 = getelementptr inbounds nuw i8, ptr %0, i64 56
  store ptr %1, ptr %5, align 8, !tbaa !31
  br label %6

6:                                                ; preds = %2, %4
  ret void
}